; Function Attrs: mustprogress noreturn uwtable
define noalias noundef nonnull ptr @_ZN7Imf_3_47IStream16readMemoryMappedEi(ptr nonnull readnone align 8 captures(none) %0, i32 %1) unnamed_addr #6 align 2 personality ptr @__gxx_personality_v0 {
  %3 = tail call ptr @__cxa_allocate_exception(i64 72) #17
  invoke void @_ZN7Iex_3_48InputExcC1EPKc(ptr noundef nonnull align 8 dereferenceable(72) %3, ptr noundef nonnull @.str)
          to label %4 unwind label %5

4:                                                ; preds = %2
  tail call void @__cxa_throw(ptr nonnull %3, ptr nonnull @_ZTIN7Iex_3_48InputExcE, ptr nonnull @_ZN7Iex_3_48InputExcD1Ev) #16
  unreachable

5:                                                ; preds = %2
  %6 = landingpad { ptr, i32 }
          cleanup
  tail call void @__cxa_free_exception(ptr nonnull %3) #17
  resume { ptr, i32 } %6
}